; Function Attrs: mustprogress nounwind uwtable
define hidden void @_ZN18OpenImageIO_v2_6_09TGAOutputD2Ev(ptr noundef nonnull align 8 dereferenceable(296) %this) unnamed_addr #3 align 2 personality ptr @__gxx_personality_v0 {
entry:
  %call = invoke noundef zeroext i1 @_ZN18OpenImageIO_v2_6_09TGAOutput5closeEv(ptr noundef nonnull align 8 dereferenceable(296) %this)
          to label %invoke.cont unwind label %terminate.lpad

invoke.cont:                                      ; preds = %entry
  %m_thumb = getelementptr inbounds i8, ptr %this, i64 280
  tail call void @_ZN18OpenImageIO_v2_6_08ImageBufD1Ev(ptr noundef nonnull align 8 dereferenceable(16) %m_thumb) #20
  %m_tilebuffer = getelementptr inbounds i8, ptr %this, i64 256
  %0 = load ptr, ptr %m_tilebuffer, align 8
  %tobool.not.i.i.i = icmp eq ptr %0, null
  br i1 %tobool.not.i.i.i, label %_ZNSt6vectorIhSaIhEED2Ev.exit, label %if.then.i.i.i

if.then.i.i.i:                                    ; preds = %invoke.cont
  tail call void @_ZdlPv(ptr noundef nonnull %0) #21
  br label %_ZNSt6vectorIhSaIhEED2Ev.exit

_ZNSt6vectorIhSaIhEED2Ev.exit:                    ; preds = %invoke.cont, %if.then.i.i.i
  %m_scratch = getelementptr inbounds i8, ptr %this, i64 224
  %1 = load ptr, ptr %m_scratch, align 8
  %tobool.not.i.i.i1 = icmp eq ptr %1, null
  br i1 %tobool.not.i.i.i1, label %_ZNSt6vectorIhSaIhEED2Ev.exit3, label %if.then.i.i.i2

if.then.i.i.i2:                                   ; preds = %_ZNSt6vectorIhSaIhEED2Ev.exit
  tail call void @_ZdlPv(ptr noundef nonnull %1) #21
  br label %_ZNSt6vectorIhSaIhEED2Ev.exit3

_ZNSt6vectorIhSaIhEED2Ev.exit3:                   ; preds = %_ZNSt6vectorIhSaIhEED2Ev.exit, %if.then.i.i.i2
  %m_filename = getelementptr inbounds i8, ptr %this, i64 184
  tail call void @_ZNSt7__cxx1112basic_stringIcSt11char_traitsIcESaIcEED1Ev(ptr noundef nonnull align 8 dereferenceable(32) %m_filename) #20
  tail call void @_ZN18OpenImageIO_v2_6_011ImageOutputD2Ev(ptr noundef nonnull align 8 dereferenceable(184) %this) #20
  ret void

terminate.lpad:                                   ; preds = %entry
  %2 = landingpad { ptr, i32 }
          catch ptr null
  %3 = extractvalue { ptr, i32 } %2, 0
  tail call void @__clang_call_terminate(ptr %3) #22
  unreachable
}